; Function Attrs: nounwind uwtable
define hidden zeroext i1 @malloc_mutex_init(ptr noundef %mutex, ptr nocapture noundef readnone %name, i32 noundef %rank, i32 noundef %lock_order) local_unnamed_addr #0 {
entry:
  %attr = alloca %union.pthread_mutexattr_t, align 4
  tail call void @llvm.memset.p0.i64(ptr noundef nonnull align 8 dereferenceable(64) %mutex, i8 0, i64 64, i1 false)
  %max_wait_time.i = getelementptr inbounds i8, ptr %mutex, i64 8
  tail call void @nstime_copy(ptr noundef nonnull %max_wait_time.i, ptr noundef nonnull @nstime_zero) #7
  tail call void @nstime_copy(ptr noundef %mutex, ptr noundef nonnull @nstime_zero) #7
  %prev_owner.i = getelementptr inbounds i8, ptr %mutex, i64 48
  store ptr null, ptr %prev_owner.i, align 8
  %call = call i32 @pthread_mutexattr_init(ptr noundef nonnull %attr) #7
  %cmp.not = icmp eq i32 %call, 0
  br i1 %cmp.not, label %if.end, label %return

if.end:                                           ; preds = %entry
  %call1 = call i32 @pthread_mutexattr_settype(ptr noundef nonnull %attr, i32 noundef 0) #7
  %lock = getelementptr inbounds i8, ptr %mutex, i64 64
  %call2 = call i32 @pthread_mutex_init(ptr noundef nonnull %lock, ptr noundef nonnull %attr) #7
  %cmp3.not = icmp ne i32 %call2, 0
  %call7 = call i32 @pthread_mutexattr_destroy(ptr noundef nonnull %attr) #7
  br label %return

return:                                           ; preds = %if.end, %entry
  %retval.0 = phi i1 [ true, %entry ], [ %cmp3.not, %if.end ]
  ret i1 %retval.0
}